---
triple:          'arm64-apple-darwin'
binary-path:     '/Users/miyako/Documents/GitHub/xls-parser/xls-parser/macOS/xls-parser'
relocations:
  - { offset: 0xC77A, size: 0x8, addend: 0x0, symName: __ZNSt3__124__put_character_sequenceB8ne180100IcNS_11char_traitsIcEEEERNS_13basic_ostreamIT_T0_EES7_PKS4_m, symObjAddr: 0x24E8, symBinAddr: 0x100003540, symSize: 0x164 }
  - { offset: 0xDF79, size: 0x8, addend: 0x0, symName: __ZNSt3__112construct_atB8ne180100I5SheetJRKS1_EPS1_EEPT_S6_DpOT0_, symObjAddr: 0x16D0, symBinAddr: 0x1000027F8, symSize: 0x90 }
  - { offset: 0xE27A, size: 0x8, addend: 0x0, symName: __ZNSt3__135__uninitialized_allocator_copy_implB8ne180100INS_9allocatorINS_12basic_stringIcNS_11char_traitsIcEENS1_IcEEEEEEPS6_S8_S8_EET2_RT_T0_T1_S9_, symObjAddr: 0x1B00, symBinAddr: 0x100002B6C, symSize: 0xBC }
  - { offset: 0xE3A7, size: 0x8, addend: 0x0, symName: __ZNSt3__120__throw_length_errorB8ne180100EPKc, symObjAddr: 0x1078, symBinAddr: 0x1000021A0, symSize: 0x50 }
  - { offset: 0xF7C1, size: 0x8, addend: 0x0, symName: __ZNSt3__119__allocate_at_leastB8ne180100INS_9allocatorI5SheetEEEENS_19__allocation_resultINS_16allocator_traitsIT_E7pointerEEERS6_m, symObjAddr: 0x1E64, symBinAddr: 0x100002EBC, symSize: 0x44 }
  - { offset: 0xF85E, size: 0x8, addend: 0x0, symName: __ZNSt3__112__destroy_atB8ne180100I5SheetLi0EEEvPT_, symObjAddr: 0x1EA8, symBinAddr: 0x100002F00, symSize: 0x44 }
  - { offset: 0xF9B1, size: 0x8, addend: 0x0, symName: __ZNSt3__135__uninitialized_allocator_copy_implB8ne180100INS_9allocatorI3RowEEPS2_S4_S4_EET2_RT_T0_T1_S5_, symObjAddr: 0x1918, symBinAddr: 0x100002A2C, symSize: 0xBC }
  - { offset: 0xFC49, size: 0x8, addend: 0x0, symName: __ZNSt3__119__allocate_at_leastB8ne180100INS_9allocatorI3RowEEEENS_19__allocation_resultINS_16allocator_traitsIT_E7pointerEEERS6_m, symObjAddr: 0x18D4, symBinAddr: 0x1000029E8, symSize: 0x44 }
  - { offset: 0xFCE6, size: 0x8, addend: 0x0, symName: __ZNSt3__135__uninitialized_allocator_copy_implB8ne180100INS_9allocatorI3RowEEPS2_S4_S4_EET2_RT_T0_T1_S5_, symObjAddr: 0x1918, symBinAddr: 0x100002A2C, symSize: 0xBC }
  - { offset: 0xFEDE, size: 0x8, addend: 0x0, symName: __ZNSt3__135__uninitialized_allocator_copy_implB8ne180100INS_9allocatorINS_12basic_stringIcNS_11char_traitsIcEENS1_IcEEEEEEPS6_S8_S8_EET2_RT_T0_T1_S9_, symObjAddr: 0x1B00, symBinAddr: 0x100002B6C, symSize: 0xBC }
  - { offset: 0x10625, size: 0x8, addend: 0x0, symName: __ZNSt3__112__destroy_atB8ne180100I5SheetLi0EEEvPT_, symObjAddr: 0x1EA8, symBinAddr: 0x100002F00, symSize: 0x44 }
  - { offset: 0x1087D, size: 0x8, addend: 0x0, symName: __ZNSt3__142__uninitialized_allocator_move_if_noexceptB8ne180100INS_9allocatorINS_12basic_stringIcNS_11char_traitsIcEENS1_IcEEEEEENS_16reverse_iteratorIPS6_EESA_SA_EET2_RT_T0_T1_SB_, symObjAddr: 0x1FAC, symBinAddr: 0x100003004, symSize: 0x9C }
  - { offset: 0x10CD3, size: 0x8, addend: 0x0, symName: __ZNSt3__142__uninitialized_allocator_move_if_noexceptB8ne180100INS_9allocatorI3RowEENS_16reverse_iteratorIPS2_EES6_S6_EET2_RT_T0_T1_S7_, symObjAddr: 0x22DC, symBinAddr: 0x100003334, symSize: 0xA0 }
  - { offset: 0x10FFC, size: 0x8, addend: 0x0, symName: __ZNSt3__116__pad_and_outputB8ne180100IcNS_11char_traitsIcEEEENS_19ostreambuf_iteratorIT_T0_EES6_PKS4_S8_S8_RNS_8ios_baseES4_, symObjAddr: 0x264C, symBinAddr: 0x1000036A4, symSize: 0x13C }
  - { offset: 0x1266E, size: 0x8, addend: 0x0, symName: __ZSt28__throw_bad_array_new_lengthB8ne180100v, symObjAddr: 0x10EC, symBinAddr: 0x100002214, symSize: 0x28 }
  - { offset: 0x14C43, size: 0x8, addend: 0x0, symName: __ZNSt3__16vectorI5SheetNS_9allocatorIS1_EEE26__swap_out_circular_bufferERNS_14__split_bufferIS1_RS3_EE, symObjAddr: 0x1DAC, symBinAddr: 0x100002E18, symSize: 0xA4 }
  - { offset: 0x14F48, size: 0x8, addend: 0x0, symName: __ZNSt3__16vectorINS_12basic_stringIcNS_11char_traitsIcEENS_9allocatorIcEEEENS4_IS6_EEE26__swap_out_circular_bufferERNS_14__split_bufferIS6_RS7_EE, symObjAddr: 0x1F38, symBinAddr: 0x100002F90, symSize: 0x74 }
  - { offset: 0x15087, size: 0x8, addend: 0x0, symName: __ZNSt3__16vectorI3RowNS_9allocatorIS1_EEE26__swap_out_circular_bufferERNS_14__split_bufferIS1_RS3_EE, symObjAddr: 0x2268, symBinAddr: 0x1000032C0, symSize: 0x74 }
  - { offset: 0x166DA, size: 0x8, addend: 0x0, symName: _main, symObjAddr: 0x0, symBinAddr: 0x100001128, symSize: 0xE24 }
  - { offset: 0x1A187, size: 0x8, addend: 0x0, symName: __ZNSt3__112basic_stringIcNS_11char_traitsIcEENS_9allocatorIcEEEC2B8ne180100ILi0EEEPKc, symObjAddr: 0x1114, symBinAddr: 0x10000223C, symSize: 0xB0 }
  - { offset: 0x1A524, size: 0x8, addend: 0x0, symName: __ZNKSt3__112basic_stringIcNS_11char_traitsIcEENS_9allocatorIcEEE20__throw_length_errorB8ne180100Ev, symObjAddr: 0x11C4, symBinAddr: 0x1000022EC, symSize: 0x14 }
  - { offset: 0x1A566, size: 0x8, addend: 0x0, symName: __ZNSt3__16vectorIhNS_9allocatorIhEEEC2Em, symObjAddr: 0xFA4, symBinAddr: 0x1000020CC, symSize: 0x70 }
  - { offset: 0x1A9D4, size: 0x8, addend: 0x0, symName: __ZNSt3__16vectorIhNS_9allocatorIhEEE18__insert_with_sizeB8ne180100INS_11__wrap_iterIPhEES7_EES7_NS5_IPKhEET_T0_l, symObjAddr: 0x11D8, symBinAddr: 0x100002300, symSize: 0x1DC }
  - { offset: 0x1B64D, size: 0x8, addend: 0x0, symName: __ZNSt3__16vectorIhNS_9allocatorIhEEE8__appendEm, symObjAddr: 0x13B4, symBinAddr: 0x1000024DC, symSize: 0x128 }
  - { offset: 0x1B6B9, size: 0x8, addend: 0x0, symName: __ZNSt3__16vectorIhNS_9allocatorIhEEE8__appendEm, symObjAddr: 0x13B4, symBinAddr: 0x1000024DC, symSize: 0x128 }
  - { offset: 0x1BBF9, size: 0x8, addend: 0x0, symName: __ZNSt3__112basic_stringIcNS_11char_traitsIcEENS_9allocatorIcEEE17__assign_externalEPKcm, symObjAddr: 0x14DC, symBinAddr: 0x100002604, symSize: 0xBC }
  - { offset: 0x1C53D, size: 0x8, addend: 0x0, symName: __ZNSt3__112basic_stringIcNS_11char_traitsIcEENS_9allocatorIcEEE17__assign_externalEPKc, symObjAddr: 0x1598, symBinAddr: 0x1000026C0, symSize: 0x34 }
  - { offset: 0x1C5D2, size: 0x8, addend: 0x0, symName: __ZNSt3__16vectorI5SheetNS_9allocatorIS1_EEE21__push_back_slow_pathIRKS1_EEPS1_OT_, symObjAddr: 0x15CC, symBinAddr: 0x1000026F4, symSize: 0x104 }
  - { offset: 0x1C8BE, size: 0x8, addend: 0x0, symName: __ZNSt3__114__split_bufferINS_12basic_stringIcNS_11char_traitsIcEENS_9allocatorIcEEEERNS4_IS6_EEED2Ev, symObjAddr: 0x20C0, symBinAddr: 0x100003118, symSize: 0x34 }
  - { offset: 0x1C9B3, size: 0x8, addend: 0x0, symName: __ZNSt3__16vectorINS_12basic_stringIcNS_11char_traitsIcEENS_9allocatorIcEEEENS4_IS6_EEE16__init_with_sizeB8ne180100IPS6_SA_EEvT_T0_m, symObjAddr: 0x19D4, symBinAddr: 0x100002AE8, symSize: 0x84 }
  - { offset: 0x1CC2A, size: 0x8, addend: 0x0, symName: __ZNSt3__16vectorI3RowNS_9allocatorIS1_EEE21__push_back_slow_pathIRKS1_EEPS1_OT_, symObjAddr: 0x2148, symBinAddr: 0x1000031A0, symSize: 0x120 }
  - { offset: 0x1CFA6, size: 0x8, addend: 0x0, symName: __ZNSt3__16vectorINS_12basic_stringIcNS_11char_traitsIcEENS_9allocatorIcEEEENS4_IS6_EEE16__destroy_vectorclB8ne180100Ev, symObjAddr: 0x1C34, symBinAddr: 0x100002CA0, symSize: 0x40 }
  - { offset: 0x1D070, size: 0x8, addend: 0x0, symName: __ZNSt3__16vectorI3RowNS_9allocatorIS1_EEE16__destroy_vectorclB8ne180100Ev, symObjAddr: 0x1D3C, symBinAddr: 0x100002DA8, symSize: 0x70 }
  - { offset: 0x1D2C6, size: 0x8, addend: 0x0, symName: __ZNSt3__16vectorI5SheetNS_9allocatorIS1_EEE16__destroy_vectorclB8ne180100Ev, symObjAddr: 0x2478, symBinAddr: 0x1000034D0, symSize: 0x70 }
  - { offset: 0x1D420, size: 0x8, addend: 0x0, symName: __ZL5usagev, symObjAddr: 0xE24, symBinAddr: 0x100001F4C, symSize: 0xF0 }
  - { offset: 0x1D48C, size: 0x8, addend: 0x0, symName: __ZN5SheetD1Ev, symObjAddr: 0xF14, symBinAddr: 0x10000203C, symSize: 0x48 }
  - { offset: 0x1D49D, size: 0x8, addend: 0x0, symName: __ZN5SheetD1Ev, symObjAddr: 0xF14, symBinAddr: 0x10000203C, symSize: 0x48 }
  - { offset: 0x1D68B, size: 0x8, addend: 0x0, symName: __ZN8DocumentD1Ev, symObjAddr: 0xF5C, symBinAddr: 0x100002084, symSize: 0x48 }
  - { offset: 0x1DA0A, size: 0x8, addend: 0x0, symName: __ZNSt3__16vectorIhNS_9allocatorIhEEE11__vallocateB8ne180100Em, symObjAddr: 0x1014, symBinAddr: 0x10000213C, symSize: 0x40 }
  - { offset: 0x1DADD, size: 0x8, addend: 0x0, symName: __ZNKSt3__16vectorIhNS_9allocatorIhEEE20__throw_length_errorB8ne180100Ev, symObjAddr: 0x1054, symBinAddr: 0x10000217C, symSize: 0x14 }
  - { offset: 0x1DB10, size: 0x8, addend: 0x0, symName: __ZNKSt3__16vectorIhNS_9allocatorIhEEE20__throw_length_errorB8ne180100Ev, symObjAddr: 0x1054, symBinAddr: 0x10000217C, symSize: 0x14 }
  - { offset: 0x1DB39, size: 0x8, addend: 0x0, symName: ___clang_call_terminate, symObjAddr: 0x1068, symBinAddr: 0x100002190, symSize: 0x10 }
  - { offset: 0x1DB44, size: 0x8, addend: 0x0, symName: __ZNSt12length_errorC1B8ne180100EPKc, symObjAddr: 0x10C8, symBinAddr: 0x1000021F0, symSize: 0x24 }
  - { offset: 0x1DD7C, size: 0x8, addend: 0x0, symName: __ZNKSt3__112basic_stringIcNS_11char_traitsIcEENS_9allocatorIcEEE20__throw_length_errorB8ne180100Ev, symObjAddr: 0x11C4, symBinAddr: 0x1000022EC, symSize: 0x14 }
  - { offset: 0x1DDA5, size: 0x8, addend: 0x0, symName: __ZNSt3__16vectorIhNS_9allocatorIhEEE18__insert_with_sizeB8ne180100INS_11__wrap_iterIPhEES7_EES7_NS5_IPKhEET_T0_l, symObjAddr: 0x11D8, symBinAddr: 0x100002300, symSize: 0x1DC }
  - { offset: 0x1E3EA, size: 0x8, addend: 0x0, symName: __ZNSt3__112basic_stringIcNS_11char_traitsIcEENS_9allocatorIcEEE17__assign_externalEPKcm, symObjAddr: 0x14DC, symBinAddr: 0x100002604, symSize: 0xBC }
  - { offset: 0x1E85C, size: 0x8, addend: 0x0, symName: __ZNSt3__114__split_bufferI5SheetRNS_9allocatorIS1_EEED2Ev, symObjAddr: 0x1EEC, symBinAddr: 0x100002F44, symSize: 0x4C }
  - { offset: 0x1E9C3, size: 0x8, addend: 0x0, symName: __ZNSt3__119__allocate_at_leastB8ne180100INS_9allocatorI5SheetEEEENS_19__allocation_resultINS_16allocator_traitsIT_E7pointerEEERS6_m, symObjAddr: 0x1E64, symBinAddr: 0x100002EBC, symSize: 0x44 }
  - { offset: 0x1EAD8, size: 0x8, addend: 0x0, symName: __ZNSt3__112basic_stringIcNS_11char_traitsIcEENS_9allocatorIcEEE25__init_copy_ctor_externalEPKcm, symObjAddr: 0x1760, symBinAddr: 0x100002888, symSize: 0x8C }
  - { offset: 0x1EE3F, size: 0x8, addend: 0x0, symName: __ZNSt3__16vectorI3RowNS_9allocatorIS1_EEE16__init_with_sizeB8ne180100IPS1_S6_EEvT_T0_m, symObjAddr: 0x17EC, symBinAddr: 0x100002914, symSize: 0x84 }
  - { offset: 0x1EE51, size: 0x8, addend: 0x0, symName: __ZNSt3__16vectorI3RowNS_9allocatorIS1_EEE16__init_with_sizeB8ne180100IPS1_S6_EEvT_T0_m, symObjAddr: 0x17EC, symBinAddr: 0x100002914, symSize: 0x84 }
  - { offset: 0x1F23D, size: 0x8, addend: 0x0, symName: __ZNSt3__16vectorI3RowNS_9allocatorIS1_EEE11__vallocateB8ne180100Em, symObjAddr: 0x1870, symBinAddr: 0x100002998, symSize: 0x50 }
  - { offset: 0x1F2E0, size: 0x8, addend: 0x0, symName: __ZNSt3__119__allocate_at_leastB8ne180100INS_9allocatorI3RowEEEENS_19__allocation_resultINS_16allocator_traitsIT_E7pointerEEERS6_m, symObjAddr: 0x18D4, symBinAddr: 0x1000029E8, symSize: 0x44 }
  - { offset: 0x1F3D0, size: 0x8, addend: 0x0, symName: __ZNSt3__128__exception_guard_exceptionsINS_29_AllocatorDestroyRangeReverseINS_9allocatorI3RowEEPS3_EEED2B8ne180100Ev, symObjAddr: 0x1CC0, symBinAddr: 0x100002D2C, symSize: 0x34 }
  - { offset: 0x1F705, size: 0x8, addend: 0x0, symName: __ZNSt3__128__exception_guard_exceptionsINS_29_AllocatorDestroyRangeReverseINS_9allocatorINS_12basic_stringIcNS_11char_traitsIcEENS2_IcEEEEEEPS7_EEED2B8ne180100Ev, symObjAddr: 0x1BBC, symBinAddr: 0x100002C28, symSize: 0x34 }
  - { offset: 0x1F744, size: 0x8, addend: 0x0, symName: __ZNKSt3__129_AllocatorDestroyRangeReverseINS_9allocatorINS_12basic_stringIcNS_11char_traitsIcEENS1_IcEEEEEEPS6_EclB8ne180100Ev, symObjAddr: 0x1BF0, symBinAddr: 0x100002C5C, symSize: 0x44 }
  - { offset: 0x1F93F, size: 0x8, addend: 0x0, symName: __ZNSt3__16vectorINS_12basic_stringIcNS_11char_traitsIcEENS_9allocatorIcEEEENS4_IS6_EEE7__clearB8ne180100Ev, symObjAddr: 0x1C74, symBinAddr: 0x100002CE0, symSize: 0x4C }
  - { offset: 0x1FAF8, size: 0x8, addend: 0x0, symName: __ZNKSt3__129_AllocatorDestroyRangeReverseINS_9allocatorI3RowEEPS2_EclB8ne180100Ev, symObjAddr: 0x1CF4, symBinAddr: 0x100002D60, symSize: 0x48 }
  - { offset: 0x200A8, size: 0x8, addend: 0x0, symName: __ZNSt3__128__exception_guard_exceptionsINS_29_AllocatorDestroyRangeReverseINS_9allocatorINS_12basic_stringIcNS_11char_traitsIcEENS2_IcEEEEEENS_16reverse_iteratorIPS7_EEEEED2B8ne180100Ev, symObjAddr: 0x2048, symBinAddr: 0x1000030A0, symSize: 0x34 }
  - { offset: 0x200E7, size: 0x8, addend: 0x0, symName: __ZNKSt3__129_AllocatorDestroyRangeReverseINS_9allocatorINS_12basic_stringIcNS_11char_traitsIcEENS1_IcEEEEEENS_16reverse_iteratorIPS6_EEEclB8ne180100Ev, symObjAddr: 0x207C, symBinAddr: 0x1000030D4, symSize: 0x44 }
  - { offset: 0x202EE, size: 0x8, addend: 0x0, symName: __ZNSt3__114__split_bufferINS_12basic_stringIcNS_11char_traitsIcEENS_9allocatorIcEEEERNS4_IS6_EEE17__destruct_at_endB8ne180100EPS6_, symObjAddr: 0x20F4, symBinAddr: 0x10000314C, symSize: 0x54 }
  - { offset: 0x20648, size: 0x8, addend: 0x0, symName: __ZNSt3__114__split_bufferI3RowRNS_9allocatorIS1_EEED2Ev, symObjAddr: 0x23F8, symBinAddr: 0x100003450, symSize: 0x30 }
  - { offset: 0x20848, size: 0x8, addend: 0x0, symName: __ZNSt3__128__exception_guard_exceptionsINS_29_AllocatorDestroyRangeReverseINS_9allocatorI3RowEENS_16reverse_iteratorIPS3_EEEEED2B8ne180100Ev, symObjAddr: 0x237C, symBinAddr: 0x1000033D4, symSize: 0x34 }
  - { offset: 0x20887, size: 0x8, addend: 0x0, symName: __ZNKSt3__129_AllocatorDestroyRangeReverseINS_9allocatorI3RowEENS_16reverse_iteratorIPS2_EEEclB8ne180100Ev, symObjAddr: 0x23B0, symBinAddr: 0x100003408, symSize: 0x48 }
  - { offset: 0x20A2C, size: 0x8, addend: 0x0, symName: __ZNSt3__114__split_bufferI3RowRNS_9allocatorIS1_EEE5clearB8ne180100Ev, symObjAddr: 0x2428, symBinAddr: 0x100003480, symSize: 0x50 }
  - { offset: 0x20E32, size: 0x8, addend: 0x0, symName: __ZNSt3__112basic_stringIcNS_11char_traitsIcEENS_9allocatorIcEEEC2B8ne180100Emc, symObjAddr: 0x2788, symBinAddr: 0x1000037E0, symSize: 0xA8 }
...
